; ModuleID = 'source-C-CXX/41/499.c'
source_filename = "source-C-CXX/41/499.c"
target datalayout = "e-m:e-p270:32:32-p271:32:32-p272:64:64-i64:64-f80:128-n8:16:32:64-S128"
target triple = "x86_64-pc-linux-gnu"

@.str = private unnamed_addr constant [4 x i8] c"%d\0A\00", align 1
@.str.1 = private unnamed_addr constant [3 x i8] c"%d\00", align 1
@.str.2 = private unnamed_addr constant [4 x i8] c"%d \00", align 1

; Function Attrs: nofree nounwind sspstrong uwtable
define dso_local void @main() local_unnamed_addr #0 {
  %1 = alloca [100001 x i32], align 16
  %2 = alloca i32, align 4
  %3 = alloca i32, align 4
  %4 = bitcast [100001 x i32]* %1 to i8*
  call void @llvm.lifetime.start.p0i8(i64 400004, i8* nonnull %4) #3
  %5 = bitcast i32* %2 to i8*
  call void @llvm.lifetime.start.p0i8(i64 4, i8* nonnull %5) #3
  %6 = bitcast i32* %3 to i8*
  call void @llvm.lifetime.start.p0i8(i64 4, i8* nonnull %6) #3
  %7 = call i32 (i8*, ...) @__isoc99_scanf(i8* getelementptr inbounds ([4 x i8], [4 x i8]* @.str, i64 0, i64 0), i32* nonnull %2)
  %8 = load i32, i32* %2, align 4, !tbaa !5
  %9 = icmp sgt i32 %8, 0
  br i1 %9, label %10, label %18

10:                                               ; preds = %0, %10
  %11 = phi i64 [ %14, %10 ], [ 0, %0 ]
  %12 = getelementptr inbounds [100001 x i32], [100001 x i32]* %1, i64 0, i64 %11
  %13 = call i32 (i8*, ...) @__isoc99_scanf(i8* getelementptr inbounds ([3 x i8], [3 x i8]* @.str.1, i64 0, i64 0), i32* nonnull %12)
  %14 = add nuw nsw i64 %11, 1
  %15 = load i32, i32* %2, align 4, !tbaa !5
  %16 = sext i32 %15 to i64
  %17 = icmp slt i64 %14, %16
  br i1 %17, label %10, label %18, !llvm.loop !9

18:                                               ; preds = %10, %0
  %19 = phi i32 [ %8, %0 ], [ %15, %10 ]
  %20 = sext i32 %19 to i64
  %21 = getelementptr inbounds [100001 x i32], [100001 x i32]* %1, i64 0, i64 %20
  store i32 0, i32* %21, align 4, !tbaa !5
  %22 = call i32 (i8*, ...) @__isoc99_scanf(i8* getelementptr inbounds ([4 x i8], [4 x i8]* @.str, i64 0, i64 0), i32* nonnull %3)
  %23 = load i32, i32* %2, align 4, !tbaa !5
  %24 = load i32, i32* %3, align 4
  %25 = icmp sgt i32 %23, 0
  br i1 %25, label %26, label %28

26:                                               ; preds = %18
  %27 = sext i32 %23 to i64
  br label %35

28:                                               ; preds = %118, %18
  %29 = phi i32 [ 0, %18 ], [ %119, %118 ]
  %30 = xor i32 %29, -1
  %31 = add i32 %23, %30
  %32 = icmp sgt i32 %31, 0
  br i1 %32, label %123, label %33

33:                                               ; preds = %28
  %34 = sext i32 %31 to i64
  br label %133

35:                                               ; preds = %26, %118
  %36 = phi i32 [ %121, %118 ], [ 0, %26 ]
  %37 = phi i32 [ %119, %118 ], [ 0, %26 ]
  %38 = sext i32 %36 to i64
  %39 = getelementptr inbounds [100001 x i32], [100001 x i32]* %1, i64 0, i64 %38
  %40 = load i32, i32* %39, align 4, !tbaa !5
  %41 = icmp eq i32 %40, %24
  br i1 %41, label %42, label %118

42:                                               ; preds = %35
  %43 = icmp slt i32 %36, %23
  br i1 %43, label %44, label %115

44:                                               ; preds = %42
  %45 = sub nsw i64 %27, %38
  %46 = icmp ult i64 %45, 8
  br i1 %46, label %106, label %47

47:                                               ; preds = %44
  %48 = and i64 %45, -8
  %49 = add nsw i64 %48, %38
  %50 = add nsw i64 %48, -8
  %51 = lshr exact i64 %50, 3
  %52 = add nuw nsw i64 %51, 1
  %53 = and i64 %52, 1
  %54 = icmp eq i64 %50, 0
  br i1 %54, label %88, label %55

55:                                               ; preds = %47
  %56 = and i64 %52, 4611686018427387902
  br label %57

57:                                               ; preds = %57, %55
  %58 = phi i64 [ 0, %55 ], [ %85, %57 ]
  %59 = phi i64 [ %56, %55 ], [ %86, %57 ]
  %60 = add i64 %58, %38
  %61 = add nsw i64 %60, 1
  %62 = getelementptr inbounds [100001 x i32], [100001 x i32]* %1, i64 0, i64 %61
  %63 = bitcast i32* %62 to <4 x i32>*
  %64 = load <4 x i32>, <4 x i32>* %63, align 4, !tbaa !5
  %65 = getelementptr inbounds i32, i32* %62, i64 4
  %66 = bitcast i32* %65 to <4 x i32>*
  %67 = load <4 x i32>, <4 x i32>* %66, align 4, !tbaa !5
  %68 = getelementptr inbounds [100001 x i32], [100001 x i32]* %1, i64 0, i64 %60
  %69 = bitcast i32* %68 to <4 x i32>*
  store <4 x i32> %64, <4 x i32>* %69, align 4, !tbaa !5
  %70 = getelementptr inbounds i32, i32* %68, i64 4
  %71 = bitcast i32* %70 to <4 x i32>*
  store <4 x i32> %67, <4 x i32>* %71, align 4, !tbaa !5
  %72 = or i64 %58, 8
  %73 = add i64 %72, %38
  %74 = add nsw i64 %73, 1
  %75 = getelementptr inbounds [100001 x i32], [100001 x i32]* %1, i64 0, i64 %74
  %76 = bitcast i32* %75 to <4 x i32>*
  %77 = load <4 x i32>, <4 x i32>* %76, align 4, !tbaa !5
  %78 = getelementptr inbounds i32, i32* %75, i64 4
  %79 = bitcast i32* %78 to <4 x i32>*
  %80 = load <4 x i32>, <4 x i32>* %79, align 4, !tbaa !5
  %81 = getelementptr inbounds [100001 x i32], [100001 x i32]* %1, i64 0, i64 %73
  %82 = bitcast i32* %81 to <4 x i32>*
  store <4 x i32> %77, <4 x i32>* %82, align 4, !tbaa !5
  %83 = getelementptr inbounds i32, i32* %81, i64 4
  %84 = bitcast i32* %83 to <4 x i32>*
  store <4 x i32> %80, <4 x i32>* %84, align 4, !tbaa !5
  %85 = add nuw i64 %58, 16
  %86 = add i64 %59, -2
  %87 = icmp eq i64 %86, 0
  br i1 %87, label %88, label %57, !llvm.loop !11

88:                                               ; preds = %57, %47
  %89 = phi i64 [ 0, %47 ], [ %85, %57 ]
  %90 = icmp eq i64 %53, 0
  br i1 %90, label %104, label %91

91:                                               ; preds = %88
  %92 = add i64 %89, %38
  %93 = add nsw i64 %92, 1
  %94 = getelementptr inbounds [100001 x i32], [100001 x i32]* %1, i64 0, i64 %93
  %95 = bitcast i32* %94 to <4 x i32>*
  %96 = load <4 x i32>, <4 x i32>* %95, align 4, !tbaa !5
  %97 = getelementptr inbounds i32, i32* %94, i64 4
  %98 = bitcast i32* %97 to <4 x i32>*
  %99 = load <4 x i32>, <4 x i32>* %98, align 4, !tbaa !5
  %100 = getelementptr inbounds [100001 x i32], [100001 x i32]* %1, i64 0, i64 %92
  %101 = bitcast i32* %100 to <4 x i32>*
  store <4 x i32> %96, <4 x i32>* %101, align 4, !tbaa !5
  %102 = getelementptr inbounds i32, i32* %100, i64 4
  %103 = bitcast i32* %102 to <4 x i32>*
  store <4 x i32> %99, <4 x i32>* %103, align 4, !tbaa !5
  br label %104

104:                                              ; preds = %88, %91
  %105 = icmp eq i64 %45, %48
  br i1 %105, label %115, label %106

106:                                              ; preds = %44, %104
  %107 = phi i64 [ %38, %44 ], [ %49, %104 ]
  br label %108

108:                                              ; preds = %106, %108
  %109 = phi i64 [ %110, %108 ], [ %107, %106 ]
  %110 = add nsw i64 %109, 1
  %111 = getelementptr inbounds [100001 x i32], [100001 x i32]* %1, i64 0, i64 %110
  %112 = load i32, i32* %111, align 4, !tbaa !5
  %113 = getelementptr inbounds [100001 x i32], [100001 x i32]* %1, i64 0, i64 %109
  store i32 %112, i32* %113, align 4, !tbaa !5
  %114 = icmp eq i64 %110, %27
  br i1 %114, label %115, label %108, !llvm.loop !13

115:                                              ; preds = %108, %104, %42
  %116 = add nsw i32 %37, 1
  %117 = add nsw i32 %36, -1
  br label %118

118:                                              ; preds = %35, %115
  %119 = phi i32 [ %116, %115 ], [ %37, %35 ]
  %120 = phi i32 [ %117, %115 ], [ %36, %35 ]
  %121 = add nsw i32 %120, 1
  %122 = icmp slt i32 %121, %23
  br i1 %122, label %35, label %28, !llvm.loop !15

123:                                              ; preds = %28, %123
  %124 = phi i64 [ %128, %123 ], [ 0, %28 ]
  %125 = getelementptr inbounds [100001 x i32], [100001 x i32]* %1, i64 0, i64 %124
  %126 = load i32, i32* %125, align 4, !tbaa !5
  %127 = call i32 (i8*, ...) @printf(i8* nonnull dereferenceable(1) getelementptr inbounds ([4 x i8], [4 x i8]* @.str.2, i64 0, i64 0), i32 %126)
  %128 = add nuw nsw i64 %124, 1
  %129 = load i32, i32* %2, align 4, !tbaa !5
  %130 = add i32 %129, %30
  %131 = sext i32 %130 to i64
  %132 = icmp slt i64 %128, %131
  br i1 %132, label %123, label %133, !llvm.loop !16

133:                                              ; preds = %123, %33
  %134 = phi i64 [ %34, %33 ], [ %131, %123 ]
  %135 = getelementptr inbounds [100001 x i32], [100001 x i32]* %1, i64 0, i64 %134
  %136 = load i32, i32* %135, align 4, !tbaa !5
  %137 = call i32 (i8*, ...) @printf(i8* nonnull dereferenceable(1) getelementptr inbounds ([4 x i8], [4 x i8]* @.str, i64 0, i64 0), i32 %136)
  call void @llvm.lifetime.end.p0i8(i64 4, i8* nonnull %6) #3
  call void @llvm.lifetime.end.p0i8(i64 4, i8* nonnull %5) #3
  call void @llvm.lifetime.end.p0i8(i64 400004, i8* nonnull %4) #3
  ret void
}

; Function Attrs: argmemonly mustprogress nofree nosync nounwind willreturn
declare void @llvm.lifetime.start.p0i8(i64 immarg, i8* nocapture) #1

; Function Attrs: nofree nounwind
declare noundef i32 @__isoc99_scanf(i8* nocapture noundef readonly, ...) local_unnamed_addr #2

; Function Attrs: nofree nounwind
declare noundef i32 @printf(i8* nocapture noundef readonly, ...) local_unnamed_addr #2

; Function Attrs: argmemonly mustprogress nofree nosync nounwind willreturn
declare void @llvm.lifetime.end.p0i8(i64 immarg, i8* nocapture) #1


!llvm.module.flags = !{!0, !1, !2, !3}
!llvm.ident = !{!4}

!0 = !{i32 1, !"wchar_size", i32 4}
!1 = !{i32 7, !"PIC Level", i32 2}
!2 = !{i32 7, !"PIE Level", i32 2}
!3 = !{i32 7, !"uwtable", i32 1}
!4 = !{!"clang version 13.0.0"}
!5 = !{!6, !6, i64 0}
!6 = !{!"int", !7, i64 0}
!7 = !{!"omnipotent char", !8, i64 0}
!8 = !{!"Simple C/C++ TBAA"}
!9 = distinct !{!9, !10}
!10 = !{!"llvm.loop.mustprogress"}
!11 = distinct !{!11, !10, !12}
!12 = !{!"llvm.loop.isvectorized", i32 1}
!13 = distinct !{!13, !10, !14, !12}
!14 = !{!"llvm.loop.unroll.runtime.disable"}
!15 = distinct !{!15, !10}
!16 = distinct !{!16, !10}
